; Function Attrs: mustprogress uwtable
define hidden void @_ZN4ncnn27DeformableConv2D_x86_avx512C2Ev(ptr noundef nonnull align 8 dereferenceable(568) %0) unnamed_addr #2 align 2 personality ptr @__gxx_personality_v0 {
  tail call void @_ZN4ncnn16DeformableConv2DC2Ev(ptr noundef nonnull align 8 dereferenceable(480) %0)
  store ptr getelementptr inbounds nuw inrange(-16, 80) (i8, ptr @_ZTVN4ncnn27DeformableConv2D_x86_avx512E, i64 16), ptr %0, align 8, !tbaa !4
  %2 = getelementptr inbounds nuw i8, ptr %0, i64 488
  %3 = getelementptr inbounds nuw i8, ptr %0, i64 520
  %4 = getelementptr inbounds nuw i8, ptr %0, i64 552
  store i64 0, ptr %4, align 8, !tbaa !17
  %5 = getelementptr inbounds nuw i8, ptr %0, i64 11
  tail call void @llvm.memset.p0.i64(ptr noundef nonnull align 8 dereferenceable(28) %2, i8 0, i64 28, i1 false)
  tail call void @llvm.memset.p0.i64(ptr noundef nonnull align 8 dereferenceable(28) %3, i8 0, i64 28, i1 false)
  store i8 1, ptr %5, align 1, !tbaa !86
  %6 = getelementptr inbounds nuw i8, ptr %0, i64 480
  store ptr null, ptr %6, align 8, !tbaa !36
  %7 = getelementptr inbounds nuw i8, ptr %0, i64 560
  store ptr null, ptr %7, align 8, !tbaa !48
  ret void
}